; Function Attrs: nounwind uwtable
define internal fastcc void @mbim_dissect_ms_file_status(ptr noundef %0, ptr noundef %1, i32 noundef %2) unnamed_addr #0 {
  %4 = load i32, ptr @hf_mbim_ms_file_status_version, align 4
  %5 = tail call ptr @proto_tree_add_item(ptr noundef %1, i32 noundef %4, ptr noundef %0, i32 noundef %2, i32 noundef 4, i32 noundef -2147483648) #10
  %6 = add i32 %2, 4
  %7 = load i32, ptr @hf_mbim_ms_file_status_status_word_1, align 4
  %8 = tail call ptr @proto_tree_add_item(ptr noundef %1, i32 noundef %7, ptr noundef %0, i32 noundef %6, i32 noundef 4, i32 noundef -2147483648) #10
  %9 = add i32 %2, 8
  %10 = load i32, ptr @hf_mbim_ms_file_status_status_word_2, align 4
  %11 = tail call ptr @proto_tree_add_item(ptr noundef %1, i32 noundef %10, ptr noundef %0, i32 noundef %9, i32 noundef 4, i32 noundef -2147483648) #10
  %12 = add i32 %2, 12
  %13 = load i32, ptr @hf_mbim_ms_file_status_file_accessibility, align 4
  %14 = tail call ptr @proto_tree_add_item(ptr noundef %1, i32 noundef %13, ptr noundef %0, i32 noundef %12, i32 noundef 4, i32 noundef -2147483648) #10
  %15 = add i32 %2, 16
  %16 = load i32, ptr @hf_mbim_ms_file_status_file_type, align 4
  %17 = tail call ptr @proto_tree_add_item(ptr noundef %1, i32 noundef %16, ptr noundef %0, i32 noundef %15, i32 noundef 4, i32 noundef -2147483648) #10
  %18 = add i32 %2, 20
  %19 = load i32, ptr @hf_mbim_ms_file_status_file_structure, align 4
  %20 = tail call ptr @proto_tree_add_item(ptr noundef %1, i32 noundef %19, ptr noundef %0, i32 noundef %18, i32 noundef 4, i32 noundef -2147483648) #10
  %21 = add i32 %2, 24
  %22 = load i32, ptr @hf_mbim_ms_file_status_item_count, align 4
  %23 = tail call ptr @proto_tree_add_item(ptr noundef %1, i32 noundef %22, ptr noundef %0, i32 noundef %21, i32 noundef 4, i32 noundef -2147483648) #10
  %24 = add i32 %2, 28
  %25 = load i32, ptr @hf_mbim_ms_file_status_size, align 4
  %26 = tail call ptr @proto_tree_add_item(ptr noundef %1, i32 noundef %25, ptr noundef %0, i32 noundef %24, i32 noundef 4, i32 noundef -2147483648) #10
  br label %27

27:                                               ; preds = %3, %27
  %.02 = phi i32 [ 0, %3 ], [ %31, %27 ]
  %.0361 = phi i32 [ %24, %3 ], [ %28, %27 ]
  %28 = add i32 %.0361, 4
  %29 = load i32, ptr @hf_mbim_ms_file_status_file_lock_status, align 4
  %30 = tail call ptr @proto_tree_add_item(ptr noundef %1, i32 noundef %29, ptr noundef %0, i32 noundef %28, i32 noundef 4, i32 noundef -2147483648) #10
  %31 = add nuw nsw i32 %.02, 1
  %exitcond.not = icmp eq i32 %31, 4
  br i1 %exitcond.not, label %32, label %27, !llvm.loop !70

32:                                               ; preds = %27
  ret void
}